target datalayout = "e-m:e-p270:32:32-p271:32:32-p272:64:64-i64:64-i128:128-f80:128-n8:16:32:64-S128"
target triple = "x86_64-pc-linux-gnu"

%struct.procfs_entry_s = type { ptr, ptr, i8 }
%struct.procfs_operations = type { ptr, ptr, ptr, ptr, ptr, ptr, ptr, ptr, ptr, ptr, ptr }
%struct.file = type { i32, i32, ptr, ptr }
%struct.procfs_file_s = type { ptr }

; Function Attrs: nounwind uwtable
define internal i32 @procfs_dup(ptr noundef %0, ptr noundef %1) #0 {
  %3 = alloca ptr, align 8
  %4 = alloca ptr, align 8
  %5 = alloca ptr, align 8
  store ptr %0, ptr %3, align 8
  store ptr %1, ptr %4, align 8
  br label %6

6:                                                ; preds = %2
  br label %7

7:                                                ; preds = %6
  %8 = load ptr, ptr %3, align 8
  %9 = getelementptr inbounds %struct.file, ptr %8, i32 0, i32 3
  %10 = load ptr, ptr %9, align 8
  store ptr %10, ptr %5, align 8
  %11 = load ptr, ptr %5, align 8
  %12 = getelementptr inbounds %struct.procfs_file_s, ptr %11, i32 0, i32 0
  %13 = load ptr, ptr %12, align 8
  %14 = getelementptr inbounds %struct.procfs_entry_s, ptr %13, i32 0, i32 1
  %15 = load ptr, ptr %14, align 8
  %16 = getelementptr inbounds %struct.procfs_operations, ptr %15, i32 0, i32 5
  %17 = load ptr, ptr %16, align 8
  %18 = load ptr, ptr %3, align 8
  %19 = load ptr, ptr %4, align 8
  %20 = call i32 %17(ptr noundef %18, ptr noundef %19)
  ret i32 %20
}